; Function Attrs: mustprogress uwtable
define void @_ZN3net24SpdyFramerVisitorAdapter6OnPingEmb(ptr noundef nonnull readonly align 8 captures(none) dereferenceable(24) %0, i64 noundef %1, i1 noundef zeroext %2) unnamed_addr #3 align 2 {
  %4 = getelementptr inbounds nuw i8, ptr %0, i64 8
  %5 = load ptr, ptr %4, align 8, !tbaa !15
  %6 = load ptr, ptr %5, align 8, !tbaa !3
  %7 = getelementptr inbounds nuw i8, ptr %6, i64 144
  %8 = load ptr, ptr %7, align 8
  tail call void %8(ptr noundef nonnull align 8 dereferenceable(8) %5, i64 noundef %1, i1 noundef zeroext %2)
  ret void
}